(dp0
S'goal'
p1
(lp2
F0.4837195848748246
aF-0.4134504965373518
asS'goalcost'
p3
F34.11313906739536
sS'ubound'
p4
F1.0
sS'timeCost'
p5
F1.0
sS'n'
p6
I2
sS'dt'
p7
F0.1
sS'name'
p8
S'doubleIntegratorProblem'
p9
sS'effortCost'
p10
F0.12107553243538272
s.