(dp0
S'goal'
p1
(lp2
F0.8247948914162526
aF-0.2606687999285575
asS'goalcost'
p3
F41.83249343995087
sS'ubound'
p4
F1.0
sS'timeCost'
p5
F1.0
sS'n'
p6
I2
sS'dt'
p7
F0.1
sS'name'
p8
S'doubleIntegratorProblem'
p9
sS'effortCost'
p10
F0.8652063541858023
s.