(dp0
S'goal'
p1
(lp2
F-0.6348019539217049
aF-0.07499234940951482
asS'goalcost'
p3
F1.8363456355649288
sS'ubound'
p4
F1.0
sS'timeCost'
p5
F1.0
sS'n'
p6
I2
sS'dt'
p7
F0.1
sS'name'
p8
S'doubleIntegratorProblem'
p9
sS'effortCost'
p10
F0.7255395131594833
s.