(dp0
S'goal'
p1
(lp2
F0.04932436450800748
aF0.8774974068395285
asS'goalcost'
p3
F41.04904739388841
sS'ubound'
p4
F1.0
sS'timeCost'
p5
F1.0
sS'n'
p6
I2
sS'dt'
p7
F0.1
sS'name'
p8
S'doubleIntegratorProblem'
p9
sS'effortCost'
p10
F0.31300149934572974
s.