(dp0
S'goal'
p1
(lp2
F0.9627294704129035
aF0.03534322533465817
asS'goalcost'
p3
F31.775586903281127
sS'ubound'
p4
F1.0
sS'timeCost'
p5
F1.0
sS'n'
p6
I2
sS'dt'
p7
F0.1
sS'name'
p8
S'doubleIntegratorProblem'
p9
sS'effortCost'
p10
F0.9351590216854617
s.