(dp0
S'goal'
p1
(lp2
F0.24209673513844843
aF-0.869137143052005
asS'goalcost'
p3
F20.124741292524607
sS'ubound'
p4
F1.0
sS'timeCost'
p5
F1.0
sS'n'
p6
I2
sS'dt'
p7
F0.1
sS'name'
p8
S'doubleIntegratorProblem'
p9
sS'effortCost'
p10
F0.7084504737007771
s.