(dp0
S'goal'
p1
(lp2
F-0.16618263232234964
aF-0.19555351850327418
asS'goalcost'
p3
F45.98812099996676
sS'ubound'
p4
F1.0
sS'timeCost'
p5
F1.0
sS'n'
p6
I2
sS'dt'
p7
F0.1
sS'name'
p8
S'doubleIntegratorProblem'
p9
sS'effortCost'
p10
F0.7092926338110779
s.