(dp0
S'goal'
p1
(lp2
F0.33916122633342227
aF0.27403615780438084
asS'goalcost'
p3
F31.484689600669135
sS'ubound'
p4
F1.0
sS'timeCost'
p5
F1.0
sS'n'
p6
I2
sS'dt'
p7
F0.1
sS'name'
p8
S'doubleIntegratorProblem'
p9
sS'effortCost'
p10
F0.4750750068399634
s.