(dp0
S'goal'
p1
(lp2
F0.38355951034290037
aF0.176715135214925
asS'goalcost'
p3
F12.756174030817814
sS'ubound'
p4
F1.0
sS'timeCost'
p5
F1.0
sS'n'
p6
I2
sS'dt'
p7
F0.1
sS'name'
p8
S'doubleIntegratorProblem'
p9
sS'effortCost'
p10
F0.163366043044472
s.