(dp0
S'goal'
p1
(lp2
F0.8006000711541374
aF-0.20867212763628973
asS'goalcost'
p3
F27.742963709896628
sS'ubound'
p4
F1.0
sS'timeCost'
p5
F1.0
sS'n'
p6
I2
sS'dt'
p7
F0.1
sS'name'
p8
S'doubleIntegratorProblem'
p9
sS'effortCost'
p10
F0.6869682433941499
s.